(iwild_gen
BC_Builder
p0
(dp1
S'hyp_count'
p2
I19
sS'lits'
p3
(lp4
(S'junk'
p5
(lp6
I1
atp7
a((iwild_gen
Predicate
p8
(dp9
S'name'
p10
S'p'
p11
sS'args'
p12
(lp13
I1
asS'arity'
p14
I1
sS'max_var'
p15
I1
sS'min_var'
p16
I1
sS'depth'
p17
I0
sS'mode'
p18
Nsb(lp19
I2
aI3
atp20
a((iwild_gen
Predicate
p21
(dp22
g10
S'q'
p23
sg12
(lp24
I1
aI2
asg14
I2
sg15
I2
sg16
I2
sg17
I1
sg18
(iwild_gen
Mode
p25
(dp26
S'pred'
p27
g23
sg14
I2
sg12
(lp28
S'input'
p29
aS'output'
p30
asS'mult'
p31
I-1
sbsb(lp32
I4
aI5
aI6
aI7
atp33
a((iwild_gen
Predicate
p34
(dp35
g10
g23
sg12
(lp36
I1
aI3
asg14
I2
sg15
I3
sg16
I2
sg17
I1
sg18
g25
sb(lp37
I8
aI9
aI10
aI11
aI12
aI13
aI14
aI15
atp38
a((iwild_gen
Predicate
p39
(dp40
g10
S'r1'
p41
sg12
(lp42
I2
asg14
I1
sg15
I-1
sg16
I-1
sg17
I1
sg18
(iwild_gen
Mode
p43
(dp44
g27
g41
sg14
I1
sg12
(lp45
g29
asg31
I1
sbsb(lp46
tp47
a((iwild_gen
Predicate
p48
(dp49
g10
S'r2'
p50
sg12
(lp51
I2
asg14
I1
sg15
I-1
sg16
I-1
sg17
I1
sg18
(iwild_gen
Mode
p52
(dp53
g27
g50
sg14
I1
sg12
(lp54
g29
asg31
I1
sbsb(lp55
tp56
a((iwild_gen
Predicate
p57
(dp58
g10
S'r3'
p59
sg12
(lp60
I2
asg14
I1
sg15
I-1
sg16
I-1
sg17
I1
sg18
(iwild_gen
Mode
p61
(dp62
g27
g59
sg14
I1
sg12
(lp63
g29
asg31
I1
sbsb(lp64
tp65
a((iwild_gen
Predicate
p66
(dp67
g10
S'r4'
p68
sg12
(lp69
I2
asg14
I1
sg15
I-1
sg16
I-1
sg17
I1
sg18
(iwild_gen
Mode
p70
(dp71
g27
g68
sg14
I1
sg12
(lp72
g29
asg31
I1
sbsb(lp73
tp74
a((iwild_gen
Predicate
p75
(dp76
g10
g41
sg12
(lp77
I2
asg14
I1
sg15
I-1
sg16
I-1
sg17
I1
sg18
g43
sb(lp78
I16
atp79
a((iwild_gen
Predicate
p80
(dp81
g10
g41
sg12
(lp82
I3
asg14
I1
sg15
I-1
sg16
I-1
sg17
I1
sg18
g43
sb(lp83
I17
atp84
a((iwild_gen
Predicate
p85
(dp86
g10
g50
sg12
(lp87
I2
asg14
I1
sg15
I-1
sg16
I-1
sg17
I1
sg18
g52
sb(lp88
I18
atp89
a((iwild_gen
Predicate
p90
(dp91
g10
g50
sg12
(lp92
I3
asg14
I1
sg15
I-1
sg16
I-1
sg17
I1
sg18
g52
sb(lp93
I19
atp94
a((iwild_gen
Predicate
p95
(dp96
g10
g59
sg12
(lp97
I2
asg14
I1
sg15
I-1
sg16
I-1
sg17
I1
sg18
g61
sb(lp98
tp99
a((iwild_gen
Predicate
p100
(dp101
g10
g59
sg12
(lp102
I3
asg14
I1
sg15
I-1
sg16
I-1
sg17
I1
sg18
g61
sb(lp103
tp104
a((iwild_gen
Predicate
p105
(dp106
g10
g68
sg12
(lp107
I2
asg14
I1
sg15
I-1
sg16
I-1
sg17
I1
sg18
g70
sb(lp108
tp109
a((iwild_gen
Predicate
p110
(dp111
g10
g68
sg12
(lp112
I3
asg14
I1
sg15
I-1
sg16
I-1
sg17
I1
sg18
g70
sb(lp113
tp114
a((iwild_gen
Predicate
p115
(dp116
g10
g68
sg12
(lp117
I3
asg14
I1
sg15
I-1
sg16
I-1
sg17
I1
sg18
g70
sb(lp118
tp119
a((iwild_gen
Predicate
p120
(dp121
g10
g68
sg12
(lp122
I2
asg14
I1
sg15
I-1
sg16
I-1
sg17
I1
sg18
g70
sb(lp123
tp124
a((iwild_gen
Predicate
p125
(dp126
g10
g59
sg12
(lp127
I3
asg14
I1
sg15
I-1
sg16
I-1
sg17
I1
sg18
g61
sb(lp128
tp129
a((iwild_gen
Predicate
p130
(dp131
g10
g59
sg12
(lp132
I2
asg14
I1
sg15
I-1
sg16
I-1
sg17
I1
sg18
g61
sb(lp133
tp134
asb.(iwild_gen
BC_Builder
p0
(dp1
S'hyp_count'
p2
I19
sS'lits'
p3
(lp4
(S'junk'
p5
(lp6
I1
atp7
a((iwild_gen
Predicate
p8
(dp9
S'name'
p10
S'p'
p11
sS'args'
p12
(lp13
I1
asS'arity'
p14
I1
sS'max_var'
p15
I1
sS'min_var'
p16
I1
sS'depth'
p17
I0
sS'mode'
p18
Nsb(lp19
I2
aI3
atp20
a((iwild_gen
Predicate
p21
(dp22
g10
S'q'
p23
sg12
(lp24
I1
aI2
asg14
I2
sg15
I2
sg16
I2
sg17
I1
sg18
(iwild_gen
Mode
p25
(dp26
S'pred'
p27
g23
sg14
I2
sg12
(lp28
S'input'
p29
aS'output'
p30
asS'mult'
p31
I-1
sbsb(lp32
I4
aI5
aI6
aI7
atp33
a((iwild_gen
Predicate
p34
(dp35
g10
g23
sg12
(lp36
I1
aI3
asg14
I2
sg15
I3
sg16
I2
sg17
I1
sg18
g25
sb(lp37
I8
aI9
aI10
aI11
aI12
aI13
aI14
aI15
atp38
a((iwild_gen
Predicate
p39
(dp40
g10
S'r1'
p41
sg12
(lp42
I2
asg14
I1
sg15
I-1
sg16
I-1
sg17
I1
sg18
(iwild_gen
Mode
p43
(dp44
g27
g41
sg14
I1
sg12
(lp45
g29
asg31
I1
sbsb(lp46
tp47
a((iwild_gen
Predicate
p48
(dp49
g10
S'r2'
p50
sg12
(lp51
I2
asg14
I1
sg15
I-1
sg16
I-1
sg17
I1
sg18
(iwild_gen
Mode
p52
(dp53
g27
g50
sg14
I1
sg12
(lp54
g29
asg31
I1
sbsb(lp55
tp56
a((iwild_gen
Predicate
p57
(dp58
g10
S'r3'
p59
sg12
(lp60
I2
asg14
I1
sg15
I-1
sg16
I-1
sg17
I1
sg18
(iwild_gen
Mode
p61
(dp62
g27
g59
sg14
I1
sg12
(lp63
g29
asg31
I1
sbsb(lp64
tp65
a((iwild_gen
Predicate
p66
(dp67
g10
S'r4'
p68
sg12
(lp69
I2
asg14
I1
sg15
I-1
sg16
I-1
sg17
I1
sg18
(iwild_gen
Mode
p70
(dp71
g27
g68
sg14
I1
sg12
(lp72
g29
asg31
I1
sbsb(lp73
tp74
a((iwild_gen
Predicate
p75
(dp76
g10
g41
sg12
(lp77
I2
asg14
I1
sg15
I-1
sg16
I-1
sg17
I1
sg18
g43
sb(lp78
I16
atp79
a((iwild_gen
Predicate
p80
(dp81
g10
g41
sg12
(lp82
I3
asg14
I1
sg15
I-1
sg16
I-1
sg17
I1
sg18
g43
sb(lp83
I17
atp84
a((iwild_gen
Predicate
p85
(dp86
g10
g50
sg12
(lp87
I2
asg14
I1
sg15
I-1
sg16
I-1
sg17
I1
sg18
g52
sb(lp88
I18
atp89
a((iwild_gen
Predicate
p90
(dp91
g10
g50
sg12
(lp92
I3
asg14
I1
sg15
I-1
sg16
I-1
sg17
I1
sg18
g52
sb(lp93
I19
atp94
a((iwild_gen
Predicate
p95
(dp96
g10
g59
sg12
(lp97
I2
asg14
I1
sg15
I-1
sg16
I-1
sg17
I1
sg18
g61
sb(lp98
tp99
a((iwild_gen
Predicate
p100
(dp101
g10
g59
sg12
(lp102
I3
asg14
I1
sg15
I-1
sg16
I-1
sg17
I1
sg18
g61
sb(lp103
tp104
a((iwild_gen
Predicate
p105
(dp106
g10
g68
sg12
(lp107
I2
asg14
I1
sg15
I-1
sg16
I-1
sg17
I1
sg18
g70
sb(lp108
tp109
a((iwild_gen
Predicate
p110
(dp111
g10
g68
sg12
(lp112
I3
asg14
I1
sg15
I-1
sg16
I-1
sg17
I1
sg18
g70
sb(lp113
tp114
a((iwild_gen
Predicate
p115
(dp116
g10
g68
sg12
(lp117
I3
asg14
I1
sg15
I-1
sg16
I-1
sg17
I1
sg18
g70
sb(lp118
tp119
a((iwild_gen
Predicate
p120
(dp121
g10
g68
sg12
(lp122
I2
asg14
I1
sg15
I-1
sg16
I-1
sg17
I1
sg18
g70
sb(lp123
tp124
a((iwild_gen
Predicate
p125
(dp126
g10
g59
sg12
(lp127
I3
asg14
I1
sg15
I-1
sg16
I-1
sg17
I1
sg18
g61
sb(lp128
tp129
a((iwild_gen
Predicate
p130
(dp131
g10
g59
sg12
(lp132
I2
asg14
I1
sg15
I-1
sg16
I-1
sg17
I1
sg18
g61
sb(lp133
tp134
asb.